target datalayout = "e-m:e-p270:32:32-p271:32:32-p272:64:64-i64:64-i128:128-f80:128-n8:16:32:64-S128"
target triple = "x86_64-pc-linux-gnu"

%"class.dap::ReaderWriter" = type { %"class.dap::Reader", %"class.dap::Writer" }
%"class.dap::Reader" = type { %"class.dap::Closable" }
%"class.dap::Closable" = type { ptr }
%"class.dap::Writer" = type { %"class.dap::Closable" }
%"class.std::__weak_count" = type { ptr }
%"class.std::__cxx11::basic_string" = type { %"struct.std::__cxx11::basic_string<char>::_Alloc_hider", i64, %union.anon }
%"struct.std::__cxx11::basic_string<char>::_Alloc_hider" = type { ptr }
%union.anon = type { i64, [8 x i8] }
%struct.sockaddr_un = type { i16, [108 x i8] }
%"class.cmDebugger::cmDebuggerPipeClient_POSIX" = type <{ %"class.dap::ReaderWriter", %"class.std::enable_shared_from_this.11", %"class.std::__cxx11::basic_string", i32, [4 x i8] }>
%"class.std::enable_shared_from_this.11" = type { %"class.std::weak_ptr.12" }
%"class.std::weak_ptr.12" = type { %"class.std::__weak_ptr.13" }
%"class.std::__weak_ptr.13" = type { ptr, %"class.std::__weak_count" }
%"class.std::allocator" = type { i8 }

@.str = private unnamed_addr constant [26 x i8] c"Failed to create socket: \00", align 1
@_ZTISt13runtime_error = external constant ptr
@.str.4 = private unnamed_addr constant [35 x i8] c"Failed to connect path to socket: \00", align 1

; Function Attrs: mustprogress uwtable
define linkonce_odr dso_local void @_ZStplIcSt11char_traitsIcESaIcEENSt7__cxx1112basic_stringIT_T0_T1_EEOS8_PKS5_(ptr dead_on_unwind noalias writable sret(%"class.std::__cxx11::basic_string") align 8 %0, ptr noundef nonnull align 8 dereferenceable(32) %1, ptr noundef %2) #0 comdat {
  %4 = alloca ptr, align 8
  %5 = alloca ptr, align 8
  %6 = alloca ptr, align 8
  store ptr %0, ptr %4, align 8
  store ptr %1, ptr %5, align 8
  store ptr %2, ptr %6, align 8
  %7 = load ptr, ptr %5, align 8
  %8 = load ptr, ptr %6, align 8
  %9 = call noundef nonnull align 8 dereferenceable(32) ptr @_ZNSt7__cxx1112basic_stringIcSt11char_traitsIcESaIcEE6appendEPKc(ptr noundef nonnull align 8 dereferenceable(32) %7, ptr noundef %8)
  call void @_ZNSt7__cxx1112basic_stringIcSt11char_traitsIcESaIcEEC1EOS4_(ptr noundef nonnull align 8 dereferenceable(32) %0, ptr noundef nonnull align 8 dereferenceable(32) %9) #16
  ret void
}

; Function Attrs: mustprogress uwtable
define dso_local void @_ZN10cmDebugger26cmDebuggerPipeClient_POSIX17WaitForConnectionEv(ptr noundef nonnull align 8 dereferenceable(68) %0) #0 align 2 personality ptr @__gxx_personality_v0 {
  %2 = alloca ptr, align 8
  %3 = alloca %"class.std::__cxx11::basic_string", align 8
  %4 = alloca %"class.std::__cxx11::basic_string", align 8
  %5 = alloca %"class.std::allocator", align 1
  %6 = alloca ptr, align 8
  %7 = alloca i32, align 4
  %8 = alloca i1, align 1
  %9 = alloca %struct.sockaddr_un, align 2
  %10 = alloca %"class.std::__cxx11::basic_string", align 8
  %11 = alloca %"class.std::__cxx11::basic_string", align 8
  %12 = alloca %"class.std::allocator", align 1
  %13 = alloca i1, align 1
  store ptr %0, ptr %2, align 8
  %14 = load ptr, ptr %2, align 8
  %15 = call i32 @socket(i32 noundef 1, i32 noundef 1, i32 noundef 0) #16
  %16 = getelementptr inbounds %"class.cmDebugger::cmDebuggerPipeClient_POSIX", ptr %14, i32 0, i32 3
  store i32 %15, ptr %16, align 8
  %17 = getelementptr inbounds %"class.cmDebugger::cmDebuggerPipeClient_POSIX", ptr %14, i32 0, i32 3
  %18 = load i32, ptr %17, align 8
  %19 = icmp slt i32 %18, 0
  br i1 %19, label %20, label %45

20:                                               ; preds = %1
  store i1 true, ptr %8, align 1
  %21 = call ptr @__cxa_allocate_exception(i64 16) #16
  call void @_ZNSaIcEC1Ev(ptr noundef nonnull align 1 dereferenceable(1) %5) #16
  invoke void @_ZNSt7__cxx1112basic_stringIcSt11char_traitsIcESaIcEEC2IS3_EEPKcRKS3_(ptr noundef nonnull align 8 dereferenceable(32) %4, ptr noundef @.str, ptr noundef nonnull align 1 dereferenceable(1) %5)
          to label %22 unwind label %28

22:                                               ; preds = %20
  %23 = call ptr @__errno_location() #20
  %24 = load i32, ptr %23, align 4
  %25 = call ptr @strerror(i32 noundef %24) #16
  invoke void @_ZStplIcSt11char_traitsIcESaIcEENSt7__cxx1112basic_stringIT_T0_T1_EEOS8_PKS5_(ptr dead_on_unwind writable sret(%"class.std::__cxx11::basic_string") align 8 %3, ptr noundef nonnull align 8 dereferenceable(32) %4, ptr noundef %25)
          to label %26 unwind label %32

26:                                               ; preds = %22
  invoke void @_ZNSt13runtime_errorC1ERKNSt7__cxx1112basic_stringIcSt11char_traitsIcESaIcEEE(ptr noundef nonnull align 8 dereferenceable(16) %21, ptr noundef nonnull align 8 dereferenceable(32) %3)
          to label %27 unwind label %36

27:                                               ; preds = %26
  store i1 false, ptr %8, align 1
  invoke void @__cxa_throw(ptr %21, ptr @_ZTISt13runtime_error, ptr @_ZNSt13runtime_errorD1Ev) #22
          to label %92 unwind label %36

28:                                               ; preds = %20
  %29 = landingpad { ptr, i32 }
          cleanup
  %30 = extractvalue { ptr, i32 } %29, 0
  store ptr %30, ptr %6, align 8
  %31 = extractvalue { ptr, i32 } %29, 1
  store i32 %31, ptr %7, align 4
  br label %41

32:                                               ; preds = %22
  %33 = landingpad { ptr, i32 }
          cleanup
  %34 = extractvalue { ptr, i32 } %33, 0
  store ptr %34, ptr %6, align 8
  %35 = extractvalue { ptr, i32 } %33, 1
  store i32 %35, ptr %7, align 4
  br label %40

36:                                               ; preds = %27, %26
  %37 = landingpad { ptr, i32 }
          cleanup
  %38 = extractvalue { ptr, i32 } %37, 0
  store ptr %38, ptr %6, align 8
  %39 = extractvalue { ptr, i32 } %37, 1
  store i32 %39, ptr %7, align 4
  call void @_ZNSt7__cxx1112basic_stringIcSt11char_traitsIcESaIcEED1Ev(ptr noundef nonnull align 8 dereferenceable(32) %3) #16
  br label %40

40:                                               ; preds = %36, %32
  call void @_ZNSt7__cxx1112basic_stringIcSt11char_traitsIcESaIcEED1Ev(ptr noundef nonnull align 8 dereferenceable(32) %4) #16
  br label %41

41:                                               ; preds = %40, %28
  call void @_ZNSaIcED1Ev(ptr noundef nonnull align 1 dereferenceable(1) %5) #16
  %42 = load i1, ptr %8, align 1
  br i1 %42, label %43, label %44

43:                                               ; preds = %41
  call void @__cxa_free_exception(ptr %21) #16
  br label %44

44:                                               ; preds = %43, %41
  br label %87

45:                                               ; preds = %1
  %46 = getelementptr inbounds %struct.sockaddr_un, ptr %9, i32 0, i32 0
  store i16 1, ptr %46, align 2
  %47 = getelementptr inbounds %struct.sockaddr_un, ptr %9, i32 0, i32 1
  %48 = getelementptr inbounds [108 x i8], ptr %47, i64 0, i64 0
  %49 = getelementptr inbounds %"class.cmDebugger::cmDebuggerPipeClient_POSIX", ptr %14, i32 0, i32 2
  %50 = call noundef ptr @_ZNKSt7__cxx1112basic_stringIcSt11char_traitsIcESaIcEE5c_strEv(ptr noundef nonnull align 8 dereferenceable(32) %49) #16
  %51 = call ptr @strncpy(ptr noundef %48, ptr noundef %50, i64 noundef 108) #16
  %52 = getelementptr inbounds %struct.sockaddr_un, ptr %9, i32 0, i32 1
  %53 = getelementptr inbounds [108 x i8], ptr %52, i64 0, i64 107
  store i8 0, ptr %53, align 1
  %54 = getelementptr inbounds %"class.cmDebugger::cmDebuggerPipeClient_POSIX", ptr %14, i32 0, i32 3
  %55 = load i32, ptr %54, align 8
  %56 = call i32 @connect(i32 noundef %55, ptr noundef %9, i32 noundef 110)
  %57 = icmp eq i32 %56, -1
  br i1 %57, label %58, label %86

58:                                               ; preds = %45
  %59 = load ptr, ptr %14, align 8
  %60 = getelementptr inbounds ptr, ptr %59, i64 3
  %61 = load ptr, ptr %60, align 8
  call void %61(ptr noundef nonnull align 8 dereferenceable(68) %14)
  store i1 true, ptr %13, align 1
  %62 = call ptr @__cxa_allocate_exception(i64 16) #16
  call void @_ZNSaIcEC1Ev(ptr noundef nonnull align 1 dereferenceable(1) %12) #16
  invoke void @_ZNSt7__cxx1112basic_stringIcSt11char_traitsIcESaIcEEC2IS3_EEPKcRKS3_(ptr noundef nonnull align 8 dereferenceable(32) %11, ptr noundef @.str.4, ptr noundef nonnull align 1 dereferenceable(1) %12)
          to label %63 unwind label %69

63:                                               ; preds = %58
  %64 = call ptr @__errno_location() #20
  %65 = load i32, ptr %64, align 4
  %66 = call ptr @strerror(i32 noundef %65) #16
  invoke void @_ZStplIcSt11char_traitsIcESaIcEENSt7__cxx1112basic_stringIT_T0_T1_EEOS8_PKS5_(ptr dead_on_unwind writable sret(%"class.std::__cxx11::basic_string") align 8 %10, ptr noundef nonnull align 8 dereferenceable(32) %11, ptr noundef %66)
          to label %67 unwind label %73

67:                                               ; preds = %63
  invoke void @_ZNSt13runtime_errorC1ERKNSt7__cxx1112basic_stringIcSt11char_traitsIcESaIcEEE(ptr noundef nonnull align 8 dereferenceable(16) %62, ptr noundef nonnull align 8 dereferenceable(32) %10)
          to label %68 unwind label %77

68:                                               ; preds = %67
  store i1 false, ptr %13, align 1
  invoke void @__cxa_throw(ptr %62, ptr @_ZTISt13runtime_error, ptr @_ZNSt13runtime_errorD1Ev) #22
          to label %92 unwind label %77

69:                                               ; preds = %58
  %70 = landingpad { ptr, i32 }
          cleanup
  %71 = extractvalue { ptr, i32 } %70, 0
  store ptr %71, ptr %6, align 8
  %72 = extractvalue { ptr, i32 } %70, 1
  store i32 %72, ptr %7, align 4
  br label %82

73:                                               ; preds = %63
  %74 = landingpad { ptr, i32 }
          cleanup
  %75 = extractvalue { ptr, i32 } %74, 0
  store ptr %75, ptr %6, align 8
  %76 = extractvalue { ptr, i32 } %74, 1
  store i32 %76, ptr %7, align 4
  br label %81

77:                                               ; preds = %68, %67
  %78 = landingpad { ptr, i32 }
          cleanup
  %79 = extractvalue { ptr, i32 } %78, 0
  store ptr %79, ptr %6, align 8
  %80 = extractvalue { ptr, i32 } %78, 1
  store i32 %80, ptr %7, align 4
  call void @_ZNSt7__cxx1112basic_stringIcSt11char_traitsIcESaIcEED1Ev(ptr noundef nonnull align 8 dereferenceable(32) %10) #16
  br label %81

81:                                               ; preds = %77, %73
  call void @_ZNSt7__cxx1112basic_stringIcSt11char_traitsIcESaIcEED1Ev(ptr noundef nonnull align 8 dereferenceable(32) %11) #16
  br label %82

82:                                               ; preds = %81, %69
  call void @_ZNSaIcED1Ev(ptr noundef nonnull align 1 dereferenceable(1) %12) #16
  %83 = load i1, ptr %13, align 1
  br i1 %83, label %84, label %85

84:                                               ; preds = %82
  call void @__cxa_free_exception(ptr %62) #16
  br label %85

85:                                               ; preds = %84, %82
  br label %87

86:                                               ; preds = %45
  ret void

87:                                               ; preds = %85, %44
  %88 = load ptr, ptr %6, align 8
  %89 = load i32, ptr %7, align 4
  %90 = insertvalue { ptr, i32 } poison, ptr %88, 0
  %91 = insertvalue { ptr, i32 } %90, i32 %89, 1
  resume { ptr, i32 } %91

92:                                               ; preds = %68, %27
  unreachable
}