; Function Attrs: mustprogress uwtable
define dso_local void @_ZN10cmDebugger26cmDebuggerPipeClient_POSIX17WaitForConnectionEv(ptr noundef nonnull align 8 dereferenceable(68) %0) local_unnamed_addr #0 align 2 personality ptr @__gxx_personality_v0 {
  %2 = alloca %"class.std::__cxx11::basic_string", align 8
  %3 = alloca %"class.std::__cxx11::basic_string", align 8
  %4 = alloca %"class.std::allocator", align 1
  %5 = alloca %struct.sockaddr_un, align 2
  %6 = alloca %"class.std::__cxx11::basic_string", align 8
  %7 = alloca %"class.std::__cxx11::basic_string", align 8
  %8 = alloca %"class.std::allocator", align 1
  %9 = tail call i32 @socket(i32 noundef 1, i32 noundef 1, i32 noundef 0) #25
  %10 = getelementptr inbounds i8, ptr %0, i64 64
  store i32 %9, ptr %10, align 8
  %11 = icmp slt i32 %9, 0
  br i1 %11, label %12, label %27

12:                                               ; preds = %1
  %13 = tail call ptr @__cxa_allocate_exception(i64 16) #25
  call void @_ZNSaIcEC1Ev(ptr noundef nonnull align 1 dereferenceable(1) %4) #25
  invoke void @_ZNSt7__cxx1112basic_stringIcSt11char_traitsIcESaIcEEC2IS3_EEPKcRKS3_(ptr noundef nonnull align 8 dereferenceable(32) %3, ptr noundef nonnull @.str, ptr noundef nonnull align 1 dereferenceable(1) %4)
          to label %14 unwind label %.thread

14:                                               ; preds = %12
  %15 = tail call ptr @__errno_location() #27
  %16 = load i32, ptr %15, align 4
  %17 = call ptr @strerror(i32 noundef %16) #25
  %18 = invoke noundef nonnull align 8 dereferenceable(32) ptr @_ZNSt7__cxx1112basic_stringIcSt11char_traitsIcESaIcEE6appendEPKc(ptr noundef nonnull align 8 dereferenceable(32) %3, ptr noundef %17)
          to label %19 unwind label %22

19:                                               ; preds = %14
  call void @_ZNSt7__cxx1112basic_stringIcSt11char_traitsIcESaIcEEC1EOS4_(ptr noundef nonnull align 8 dereferenceable(32) %2, ptr noundef nonnull align 8 dereferenceable(32) %18) #25
  invoke void @_ZNSt13runtime_errorC1ERKNSt7__cxx1112basic_stringIcSt11char_traitsIcESaIcEEE(ptr noundef nonnull align 8 dereferenceable(16) %13, ptr noundef nonnull align 8 dereferenceable(32) %2)
          to label %20 unwind label %24

20:                                               ; preds = %19
  invoke void @__cxa_throw(ptr nonnull %13, ptr nonnull @_ZTISt13runtime_error, ptr nonnull @_ZNSt13runtime_errorD1Ev) #28
          to label %56 unwind label %24

.thread:                                          ; preds = %12
  %21 = landingpad { ptr, i32 }
          cleanup
  br label %.sink.split.sink.split

22:                                               ; preds = %14
  %23 = landingpad { ptr, i32 }
          cleanup
  br label %26

24:                                               ; preds = %20, %19
  %.04 = phi i1 [ false, %20 ], [ true, %19 ]
  %25 = landingpad { ptr, i32 }
          cleanup
  call void @_ZNSt7__cxx1112basic_stringIcSt11char_traitsIcESaIcEED1Ev(ptr noundef nonnull align 8 dereferenceable(32) %2) #25
  br label %26

26:                                               ; preds = %22, %24
  %.pn17 = phi { ptr, i32 } [ %25, %24 ], [ %23, %22 ]
  %.15 = phi i1 [ %.04, %24 ], [ true, %22 ]
  call void @_ZNSt7__cxx1112basic_stringIcSt11char_traitsIcESaIcEED1Ev(ptr noundef nonnull align 8 dereferenceable(32) %3) #25
  call void @_ZNSaIcED1Ev(ptr noundef nonnull align 1 dereferenceable(1) %4) #25
  br i1 %.15, label %.sink.split, label %55

27:                                               ; preds = %1
  store i16 1, ptr %5, align 2
  %28 = getelementptr inbounds i8, ptr %5, i64 2
  %29 = getelementptr inbounds i8, ptr %0, i64 32
  %30 = tail call noundef ptr @_ZNKSt7__cxx1112basic_stringIcSt11char_traitsIcESaIcEE5c_strEv(ptr noundef nonnull align 8 dereferenceable(32) %29) #25
  %31 = call ptr @strncpy(ptr noundef nonnull dereferenceable(1) %28, ptr noundef nonnull dereferenceable(1) %30, i64 noundef 108) #25
  %32 = getelementptr inbounds i8, ptr %5, i64 109
  store i8 0, ptr %32, align 1
  %33 = load i32, ptr %10, align 8
  %34 = call i32 @connect(i32 noundef %33, ptr noundef nonnull %5, i32 noundef 110)
  %35 = icmp eq i32 %34, -1
  br i1 %35, label %36, label %54

36:                                               ; preds = %27
  %37 = load ptr, ptr %0, align 8
  %38 = getelementptr inbounds i8, ptr %37, i64 24
  %39 = load ptr, ptr %38, align 8
  call void %39(ptr noundef nonnull align 8 dereferenceable(68) %0)
  %40 = call ptr @__cxa_allocate_exception(i64 16) #25
  call void @_ZNSaIcEC1Ev(ptr noundef nonnull align 1 dereferenceable(1) %8) #25
  invoke void @_ZNSt7__cxx1112basic_stringIcSt11char_traitsIcESaIcEEC2IS3_EEPKcRKS3_(ptr noundef nonnull align 8 dereferenceable(32) %7, ptr noundef nonnull @.str.4, ptr noundef nonnull align 1 dereferenceable(1) %8)
          to label %41 unwind label %.thread25

41:                                               ; preds = %36
  %42 = tail call ptr @__errno_location() #27
  %43 = load i32, ptr %42, align 4
  %44 = call ptr @strerror(i32 noundef %43) #25
  %45 = invoke noundef nonnull align 8 dereferenceable(32) ptr @_ZNSt7__cxx1112basic_stringIcSt11char_traitsIcESaIcEE6appendEPKc(ptr noundef nonnull align 8 dereferenceable(32) %7, ptr noundef %44)
          to label %46 unwind label %49

46:                                               ; preds = %41
  call void @_ZNSt7__cxx1112basic_stringIcSt11char_traitsIcESaIcEEC1EOS4_(ptr noundef nonnull align 8 dereferenceable(32) %6, ptr noundef nonnull align 8 dereferenceable(32) %45) #25
  invoke void @_ZNSt13runtime_errorC1ERKNSt7__cxx1112basic_stringIcSt11char_traitsIcESaIcEEE(ptr noundef nonnull align 8 dereferenceable(16) %40, ptr noundef nonnull align 8 dereferenceable(32) %6)
          to label %47 unwind label %51

47:                                               ; preds = %46
  invoke void @__cxa_throw(ptr nonnull %40, ptr nonnull @_ZTISt13runtime_error, ptr nonnull @_ZNSt13runtime_errorD1Ev) #28
          to label %56 unwind label %51

.thread25:                                        ; preds = %36
  %48 = landingpad { ptr, i32 }
          cleanup
  br label %.sink.split.sink.split

49:                                               ; preds = %41
  %50 = landingpad { ptr, i32 }
          cleanup
  br label %53

51:                                               ; preds = %47, %46
  %.0 = phi i1 [ false, %47 ], [ true, %46 ]
  %52 = landingpad { ptr, i32 }
          cleanup
  call void @_ZNSt7__cxx1112basic_stringIcSt11char_traitsIcESaIcEED1Ev(ptr noundef nonnull align 8 dereferenceable(32) %6) #25
  br label %53

53:                                               ; preds = %49, %51
  %.pn = phi { ptr, i32 } [ %52, %51 ], [ %50, %49 ]
  %.1 = phi i1 [ %.0, %51 ], [ true, %49 ]
  call void @_ZNSt7__cxx1112basic_stringIcSt11char_traitsIcESaIcEED1Ev(ptr noundef nonnull align 8 dereferenceable(32) %7) #25
  call void @_ZNSaIcED1Ev(ptr noundef nonnull align 1 dereferenceable(1) %8) #25
  br i1 %.1, label %.sink.split, label %55

54:                                               ; preds = %27
  ret void

.sink.split.sink.split:                           ; preds = %.thread, %.thread25
  %.sink29 = phi ptr [ %8, %.thread25 ], [ %4, %.thread ]
  %.sink.ph = phi ptr [ %40, %.thread25 ], [ %13, %.thread ]
  %.pn17.pn.pn.ph.ph = phi { ptr, i32 } [ %48, %.thread25 ], [ %21, %.thread ]
  call void @_ZNSaIcED1Ev(ptr noundef nonnull align 1 dereferenceable(1) %.sink29) #25
  br label %.sink.split

.sink.split:                                      ; preds = %.sink.split.sink.split, %53, %26
  %.sink = phi ptr [ %13, %26 ], [ %40, %53 ], [ %.sink.ph, %.sink.split.sink.split ]
  %.pn17.pn.pn.ph = phi { ptr, i32 } [ %.pn17, %26 ], [ %.pn, %53 ], [ %.pn17.pn.pn.ph.ph, %.sink.split.sink.split ]
  call void @__cxa_free_exception(ptr %.sink) #25
  br label %55

55:                                               ; preds = %.sink.split, %53, %26
  %.pn17.pn.pn = phi { ptr, i32 } [ %.pn17, %26 ], [ %.pn, %53 ], [ %.pn17.pn.pn.ph, %.sink.split ]
  resume { ptr, i32 } %.pn17.pn.pn

56:                                               ; preds = %47, %20
  unreachable
}